
_WriteToEEprom:

;TP5_A.c,40 :: 		void WriteToEEprom(unsigned short Address, unsigned short Data) {
;TP5_A.c,41 :: 		I2C1_Start();
	CALL        _I2C1_Start+0, 0
;TP5_A.c,42 :: 		I2C1_Wr(EEPROM_WR);
	MOVLW       160
	MOVWF       FARG_I2C1_Wr_data_+0 
	CALL        _I2C1_Wr+0, 0
;TP5_A.c,43 :: 		I2C1_Wr(Address);
	MOVF        FARG_WriteToEEprom_Address+0, 0 
	MOVWF       FARG_I2C1_Wr_data_+0 
	CALL        _I2C1_Wr+0, 0
;TP5_A.c,44 :: 		I2C1_Wr(Data);
	MOVF        FARG_WriteToEEprom_Data+0, 0 
	MOVWF       FARG_I2C1_Wr_data_+0 
	CALL        _I2C1_Wr+0, 0
;TP5_A.c,45 :: 		I2C1_Stop();
	CALL        _I2C1_Stop+0, 0
;TP5_A.c,46 :: 		}
L_end_WriteToEEprom:
	RETURN      0
; end of _WriteToEEprom

_ReadFromEEprom:

;TP5_A.c,49 :: 		unsigned short ReadFromEEprom(unsigned short Address) {
;TP5_A.c,51 :: 		I2C1_Start();
	CALL        _I2C1_Start+0, 0
;TP5_A.c,52 :: 		I2C1_Wr(EEPROM_WR);
	MOVLW       160
	MOVWF       FARG_I2C1_Wr_data_+0 
	CALL        _I2C1_Wr+0, 0
;TP5_A.c,53 :: 		I2C1_Wr(Address);
	MOVF        FARG_ReadFromEEprom_Address+0, 0 
	MOVWF       FARG_I2C1_Wr_data_+0 
	CALL        _I2C1_Wr+0, 0
;TP5_A.c,54 :: 		I2C1_Repeated_Start();
	CALL        _I2C1_Repeated_Start+0, 0
;TP5_A.c,55 :: 		I2C1_Wr(EEPROM_RD);
	MOVLW       161
	MOVWF       FARG_I2C1_Wr_data_+0 
	CALL        _I2C1_Wr+0, 0
;TP5_A.c,56 :: 		temp = I2C1_Rd(0u);
	CLRF        FARG_I2C1_Rd_ack+0 
	CALL        _I2C1_Rd+0, 0
	MOVF        R0, 0 
	MOVWF       ReadFromEEprom_temp_L0+0 
;TP5_A.c,57 :: 		I2C1_Stop();
	CALL        _I2C1_Stop+0, 0
;TP5_A.c,58 :: 		return temp;
	MOVF        ReadFromEEprom_temp_L0+0, 0 
	MOVWF       R0 
;TP5_A.c,59 :: 		}
L_end_ReadFromEEprom:
	RETURN      0
; end of _ReadFromEEprom

_update_values:

;TP5_A.c,61 :: 		void update_values(){
;TP5_A.c,62 :: 		if (Button(&PORTD, 0, 1, 1)){
	MOVLW       PORTD+0
	MOVWF       FARG_Button_port+0 
	MOVLW       hi_addr(PORTD+0)
	MOVWF       FARG_Button_port+1 
	CLRF        FARG_Button_pin+0 
	MOVLW       1
	MOVWF       FARG_Button_time_ms+0 
	MOVLW       1
	MOVWF       FARG_Button_active_state+0 
	CALL        _Button+0, 0
	MOVF        R0, 1 
	BTFSC       STATUS+0, 2 
	GOTO        L_update_values0
;TP5_A.c,63 :: 		old_state_1 = 1;
	BSF         _old_state_1+0, BitPos(_old_state_1+0) 
;TP5_A.c,64 :: 		}
L_update_values0:
;TP5_A.c,65 :: 		if (Button(&PORTD, 0, 1, 0 ) && old_state_1) {
	MOVLW       PORTD+0
	MOVWF       FARG_Button_port+0 
	MOVLW       hi_addr(PORTD+0)
	MOVWF       FARG_Button_port+1 
	CLRF        FARG_Button_pin+0 
	MOVLW       1
	MOVWF       FARG_Button_time_ms+0 
	CLRF        FARG_Button_active_state+0 
	CALL        _Button+0, 0
	MOVF        R0, 1 
	BTFSC       STATUS+0, 2 
	GOTO        L_update_values3
	BTFSS       _old_state_1+0, BitPos(_old_state_1+0) 
	GOTO        L_update_values3
L__update_values29:
;TP5_A.c,66 :: 		start_flag = 1;
	BSF         _start_flag+0, BitPos(_start_flag+0) 
;TP5_A.c,67 :: 		old_state_1 = 0;
	BCF         _old_state_1+0, BitPos(_old_state_1+0) 
;TP5_A.c,68 :: 		}
L_update_values3:
;TP5_A.c,70 :: 		if (Button(&PORTD, 1, 1, 1)){
	MOVLW       PORTD+0
	MOVWF       FARG_Button_port+0 
	MOVLW       hi_addr(PORTD+0)
	MOVWF       FARG_Button_port+1 
	MOVLW       1
	MOVWF       FARG_Button_pin+0 
	MOVLW       1
	MOVWF       FARG_Button_time_ms+0 
	MOVLW       1
	MOVWF       FARG_Button_active_state+0 
	CALL        _Button+0, 0
	MOVF        R0, 1 
	BTFSC       STATUS+0, 2 
	GOTO        L_update_values4
;TP5_A.c,71 :: 		old_state_2 = 1;
	BSF         _old_state_2+0, BitPos(_old_state_2+0) 
;TP5_A.c,72 :: 		}
L_update_values4:
;TP5_A.c,73 :: 		if (Button(&PORTD, 1, 1, 0 ) && old_state_2) {
	MOVLW       PORTD+0
	MOVWF       FARG_Button_port+0 
	MOVLW       hi_addr(PORTD+0)
	MOVWF       FARG_Button_port+1 
	MOVLW       1
	MOVWF       FARG_Button_pin+0 
	MOVLW       1
	MOVWF       FARG_Button_time_ms+0 
	CLRF        FARG_Button_active_state+0 
	CALL        _Button+0, 0
	MOVF        R0, 1 
	BTFSC       STATUS+0, 2 
	GOTO        L_update_values7
	BTFSS       _old_state_2+0, BitPos(_old_state_2+0) 
	GOTO        L_update_values7
L__update_values28:
;TP5_A.c,74 :: 		start_flag = 0;
	BCF         _start_flag+0, BitPos(_start_flag+0) 
;TP5_A.c,75 :: 		LCD_Out(2,6,"Stop        ");
	MOVLW       2
	MOVWF       FARG_Lcd_Out_row+0 
	MOVLW       6
	MOVWF       FARG_Lcd_Out_column+0 
	MOVLW       ?lstr1_TP5_A+0
	MOVWF       FARG_Lcd_Out_text+0 
	MOVLW       hi_addr(?lstr1_TP5_A+0)
	MOVWF       FARG_Lcd_Out_text+1 
	CALL        _Lcd_Out+0, 0
;TP5_A.c,76 :: 		old_state_2 = 0;
	BCF         _old_state_2+0, BitPos(_old_state_2+0) 
;TP5_A.c,77 :: 		}
L_update_values7:
;TP5_A.c,79 :: 		if (Button(&PORTD, 2, 1, 1)){
	MOVLW       PORTD+0
	MOVWF       FARG_Button_port+0 
	MOVLW       hi_addr(PORTD+0)
	MOVWF       FARG_Button_port+1 
	MOVLW       2
	MOVWF       FARG_Button_pin+0 
	MOVLW       1
	MOVWF       FARG_Button_time_ms+0 
	MOVLW       1
	MOVWF       FARG_Button_active_state+0 
	CALL        _Button+0, 0
	MOVF        R0, 1 
	BTFSC       STATUS+0, 2 
	GOTO        L_update_values8
;TP5_A.c,80 :: 		old_state_3 = 1;
	BSF         _old_state_3+0, BitPos(_old_state_3+0) 
;TP5_A.c,81 :: 		}
L_update_values8:
;TP5_A.c,82 :: 		if (Button(&PORTD, 2, 1, 0 ) && old_state_3) {
	MOVLW       PORTD+0
	MOVWF       FARG_Button_port+0 
	MOVLW       hi_addr(PORTD+0)
	MOVWF       FARG_Button_port+1 
	MOVLW       2
	MOVWF       FARG_Button_pin+0 
	MOVLW       1
	MOVWF       FARG_Button_time_ms+0 
	CLRF        FARG_Button_active_state+0 
	CALL        _Button+0, 0
	MOVF        R0, 1 
	BTFSC       STATUS+0, 2 
	GOTO        L_update_values11
	BTFSS       _old_state_3+0, BitPos(_old_state_3+0) 
	GOTO        L_update_values11
L__update_values27:
;TP5_A.c,83 :: 		dump_flag = 1;
	BSF         _dump_flag+0, BitPos(_dump_flag+0) 
;TP5_A.c,84 :: 		old_state_3 = 0;
	BCF         _old_state_3+0, BitPos(_old_state_3+0) 
;TP5_A.c,85 :: 		}
L_update_values11:
;TP5_A.c,86 :: 		}
L_end_update_values:
	RETURN      0
; end of _update_values

_adc2eeprom:

;TP5_A.c,90 :: 		void adc2eeprom(){
;TP5_A.c,92 :: 		while(start_flag && index <= 100 && (last_index!=index)){
L_adc2eeprom12:
	BTFSS       _start_flag+0, BitPos(_start_flag+0) 
	GOTO        L_adc2eeprom13
	MOVF        _index+0, 0 
	SUBLW       100
	BTFSS       STATUS+0, 0 
	GOTO        L_adc2eeprom13
	MOVF        _last_index+0, 0 
	XORWF       _index+0, 0 
	BTFSC       STATUS+0, 2 
	GOTO        L_adc2eeprom13
L__adc2eeprom30:
;TP5_A.c,93 :: 		adc = ADC_Read(0);
	CLRF        FARG_ADC_Read_channel+0 
	CALL        _ADC_Read+0, 0
;TP5_A.c,94 :: 		WriteToEEprom(index, adc);
	MOVF        _index+0, 0 
	MOVWF       FARG_WriteToEEprom_Address+0 
	MOVF        R0, 0 
	MOVWF       FARG_WriteToEEprom_Data+0 
	CALL        _WriteToEEprom+0, 0
;TP5_A.c,95 :: 		Delay_10ms();
	CALL        _Delay_10ms+0, 0
;TP5_A.c,96 :: 		update_values();
	CALL        _update_values+0, 0
;TP5_A.c,97 :: 		LCD_Out(2,6,"Start         ");
	MOVLW       2
	MOVWF       FARG_Lcd_Out_row+0 
	MOVLW       6
	MOVWF       FARG_Lcd_Out_column+0 
	MOVLW       ?lstr2_TP5_A+0
	MOVWF       FARG_Lcd_Out_text+0 
	MOVLW       hi_addr(?lstr2_TP5_A+0)
	MOVWF       FARG_Lcd_Out_text+1 
	CALL        _Lcd_Out+0, 0
;TP5_A.c,98 :: 		last_index = index ;
	MOVF        _index+0, 0 
	MOVWF       _last_index+0 
;TP5_A.c,99 :: 		}
	GOTO        L_adc2eeprom12
L_adc2eeprom13:
;TP5_A.c,100 :: 		}
L_end_adc2eeprom:
	RETURN      0
; end of _adc2eeprom

_send_values:

;TP5_A.c,103 :: 		void send_values(char val_to_send){
;TP5_A.c,104 :: 		UART1_Write(SOT);
	MOVLW       2
	MOVWF       FARG_UART1_Write_data_+0 
	CALL        _UART1_Write+0, 0
;TP5_A.c,105 :: 		UART1_Write_Text(val_to_send);
	MOVF        FARG_send_values_val_to_send+0, 0 
	MOVWF       FARG_UART1_Write_Text_uart_text+0 
	MOVLW       0
	MOVWF       FARG_UART1_Write_Text_uart_text+1 
	CALL        _UART1_Write_Text+0, 0
;TP5_A.c,106 :: 		UART1_Write(EOT);
	MOVLW       3
	MOVWF       FARG_UART1_Write_data_+0 
	CALL        _UART1_Write+0, 0
;TP5_A.c,107 :: 		UART1_Write(LF);
	MOVLW       10
	MOVWF       FARG_UART1_Write_data_+0 
	CALL        _UART1_Write+0, 0
;TP5_A.c,108 :: 		UART1_Write(CR);
	MOVLW       13
	MOVWF       FARG_UART1_Write_data_+0 
	CALL        _UART1_Write+0, 0
;TP5_A.c,109 :: 		}
L_end_send_values:
	RETURN      0
; end of _send_values

_reset_if_last_pos:

;TP5_A.c,112 :: 		void reset_if_last_pos(){
;TP5_A.c,113 :: 		if (dump_index == index){
	MOVF        _dump_index+0, 0 
	XORWF       _index+0, 0 
	BTFSS       STATUS+0, 2 
	GOTO        L_reset_if_last_pos16
;TP5_A.c,114 :: 		dump_flag = 0;
	BCF         _dump_flag+0, BitPos(_dump_flag+0) 
;TP5_A.c,115 :: 		dump_index = 0;
	CLRF        _dump_index+0 
;TP5_A.c,116 :: 		}
L_reset_if_last_pos16:
;TP5_A.c,117 :: 		dump_index++;
	INCF        _dump_index+0, 1 
;TP5_A.c,118 :: 		}
L_end_reset_if_last_pos:
	RETURN      0
; end of _reset_if_last_pos

_dump_from_eeprom:

;TP5_A.c,122 :: 		void dump_from_eeprom(){
;TP5_A.c,123 :: 		while (dump_flag && !start_flag){
L_dump_from_eeprom17:
	BTFSS       _dump_flag+0, BitPos(_dump_flag+0) 
	GOTO        L_dump_from_eeprom18
	BTFSC       _start_flag+0, BitPos(_start_flag+0) 
	GOTO        L_dump_from_eeprom18
L__dump_from_eeprom31:
;TP5_A.c,126 :: 		eeprom_val = ReadFromEEprom(dump_index);
	MOVF        _dump_index+0, 0 
	MOVWF       FARG_ReadFromEEprom_Address+0 
	CALL        _ReadFromEEprom+0, 0
	MOVF        R0, 0 
	MOVWF       dump_from_eeprom_eeprom_val_L1+0 
	MOVLW       0
	MOVWF       dump_from_eeprom_eeprom_val_L1+1 
;TP5_A.c,127 :: 		sprintf(content_eeprom,"Data: %u",eeprom_val);
	MOVLW       dump_from_eeprom_content_eeprom_L1+0
	MOVWF       FARG_sprintf_wh+0 
	MOVLW       hi_addr(dump_from_eeprom_content_eeprom_L1+0)
	MOVWF       FARG_sprintf_wh+1 
	MOVLW       ?lstr_3_TP5_A+0
	MOVWF       FARG_sprintf_f+0 
	MOVLW       hi_addr(?lstr_3_TP5_A+0)
	MOVWF       FARG_sprintf_f+1 
	MOVLW       higher_addr(?lstr_3_TP5_A+0)
	MOVWF       FARG_sprintf_f+2 
	MOVF        dump_from_eeprom_eeprom_val_L1+0, 0 
	MOVWF       FARG_sprintf_wh+5 
	MOVF        dump_from_eeprom_eeprom_val_L1+1, 0 
	MOVWF       FARG_sprintf_wh+6 
	CALL        _sprintf+0, 0
;TP5_A.c,128 :: 		send_values(content_eeprom);
	MOVLW       dump_from_eeprom_content_eeprom_L1+0
	MOVWF       FARG_send_values_val_to_send+0 
	CALL        _send_values+0, 0
;TP5_A.c,129 :: 		LCD_Out(1,1,content_eeprom);
	MOVLW       1
	MOVWF       FARG_Lcd_Out_row+0 
	MOVLW       1
	MOVWF       FARG_Lcd_Out_column+0 
	MOVLW       dump_from_eeprom_content_eeprom_L1+0
	MOVWF       FARG_Lcd_Out_text+0 
	MOVLW       hi_addr(dump_from_eeprom_content_eeprom_L1+0)
	MOVWF       FARG_Lcd_Out_text+1 
	CALL        _Lcd_Out+0, 0
;TP5_A.c,130 :: 		LCD_Out(2,6,"Dumping...    ");
	MOVLW       2
	MOVWF       FARG_Lcd_Out_row+0 
	MOVLW       6
	MOVWF       FARG_Lcd_Out_column+0 
	MOVLW       ?lstr4_TP5_A+0
	MOVWF       FARG_Lcd_Out_text+0 
	MOVLW       hi_addr(?lstr4_TP5_A+0)
	MOVWF       FARG_Lcd_Out_text+1 
	CALL        _Lcd_Out+0, 0
;TP5_A.c,131 :: 		reset_if_last_pos();
	CALL        _reset_if_last_pos+0, 0
;TP5_A.c,132 :: 		}
	GOTO        L_dump_from_eeprom17
L_dump_from_eeprom18:
;TP5_A.c,133 :: 		}
L_end_dump_from_eeprom:
	RETURN      0
; end of _dump_from_eeprom

_Interrupt:

;TP5_A.c,136 :: 		void Interrupt(){
;TP5_A.c,137 :: 		if (TMR0IF_bit){
	BTFSS       TMR0IF_bit+0, BitPos(TMR0IF_bit+0) 
	GOTO        L_Interrupt21
;TP5_A.c,138 :: 		TMR0IF_bit = 0;
	BCF         TMR0IF_bit+0, BitPos(TMR0IF_bit+0) 
;TP5_A.c,139 :: 		TMR0H	 = 0x0B;
	MOVLW       11
	MOVWF       TMR0H+0 
;TP5_A.c,140 :: 		TMR0L	 = 0xDC;
	MOVLW       220
	MOVWF       TMR0L+0 
;TP5_A.c,141 :: 		if (start_flag){
	BTFSS       _start_flag+0, BitPos(_start_flag+0) 
	GOTO        L_Interrupt22
;TP5_A.c,142 :: 		index++;
	INCF        _index+0, 1 
;TP5_A.c,143 :: 		}
L_Interrupt22:
;TP5_A.c,144 :: 		}
L_Interrupt21:
;TP5_A.c,145 :: 		}
L_end_Interrupt:
L__Interrupt40:
	RETFIE      1
; end of _Interrupt

_LCD_init_message:

;TP5_A.c,148 :: 		void LCD_init_message(){
;TP5_A.c,149 :: 		Lcd_Cmd(_LCD_CLEAR);
	MOVLW       1
	MOVWF       FARG_Lcd_Cmd_out_char+0 
	CALL        _Lcd_Cmd+0, 0
;TP5_A.c,150 :: 		Lcd_Cmd(_LCD_CURSOR_OFF);
	MOVLW       12
	MOVWF       FARG_Lcd_Cmd_out_char+0 
	CALL        _Lcd_Cmd+0, 0
;TP5_A.c,151 :: 		Lcd_Out(1,1,"Initialisation...");
	MOVLW       1
	MOVWF       FARG_Lcd_Out_row+0 
	MOVLW       1
	MOVWF       FARG_Lcd_Out_column+0 
	MOVLW       ?lstr5_TP5_A+0
	MOVWF       FARG_Lcd_Out_text+0 
	MOVLW       hi_addr(?lstr5_TP5_A+0)
	MOVWF       FARG_Lcd_Out_text+1 
	CALL        _Lcd_Out+0, 0
;TP5_A.c,152 :: 		Delay_ms(1000);
	MOVLW       11
	MOVWF       R11, 0
	MOVLW       38
	MOVWF       R12, 0
	MOVLW       93
	MOVWF       R13, 0
L_LCD_init_message23:
	DECFSZ      R13, 1, 1
	BRA         L_LCD_init_message23
	DECFSZ      R12, 1, 1
	BRA         L_LCD_init_message23
	DECFSZ      R11, 1, 1
	BRA         L_LCD_init_message23
	NOP
	NOP
;TP5_A.c,153 :: 		Lcd_Cmd(_LCD_CLEAR);
	MOVLW       1
	MOVWF       FARG_Lcd_Cmd_out_char+0 
	CALL        _Lcd_Cmd+0, 0
;TP5_A.c,154 :: 		Lcd_Out(2,1,"Mode:Attente");
	MOVLW       2
	MOVWF       FARG_Lcd_Out_row+0 
	MOVLW       1
	MOVWF       FARG_Lcd_Out_column+0 
	MOVLW       ?lstr6_TP5_A+0
	MOVWF       FARG_Lcd_Out_text+0 
	MOVLW       hi_addr(?lstr6_TP5_A+0)
	MOVWF       FARG_Lcd_Out_text+1 
	CALL        _Lcd_Out+0, 0
;TP5_A.c,155 :: 		}
L_end_LCD_init_message:
	RETURN      0
; end of _LCD_init_message

_init:

;TP5_A.c,158 :: 		void init(){
;TP5_A.c,160 :: 		ANSELA  = 0b00000001;
	MOVLW       1
	MOVWF       ANSELA+0 
;TP5_A.c,161 :: 		ANSELB = 0;
	CLRF        ANSELB+0 
;TP5_A.c,162 :: 		ANSELD  = 0;
	CLRF        ANSELD+0 
;TP5_A.c,163 :: 		ANSELC = 0;
	CLRF        ANSELC+0 
;TP5_A.c,166 :: 		C1ON_bit = 0;
	BCF         C1ON_bit+0, BitPos(C1ON_bit+0) 
;TP5_A.c,167 :: 		C2ON_bit = 0;
	BCF         C2ON_bit+0, BitPos(C2ON_bit+0) 
;TP5_A.c,170 :: 		TRISD = 0b00000111;
	MOVLW       7
	MOVWF       TRISD+0 
;TP5_A.c,171 :: 		TRISA = 0b00000001;
	MOVLW       1
	MOVWF       TRISA+0 
;TP5_A.c,172 :: 		TRISB = 0;
	CLRF        TRISB+0 
;TP5_A.c,175 :: 		start_flag = 0;
	BCF         _start_flag+0, BitPos(_start_flag+0) 
;TP5_A.c,176 :: 		dump_flag = 0;
	BCF         _dump_flag+0, BitPos(_dump_flag+0) 
;TP5_A.c,177 :: 		old_state_1 = 0;
	BCF         _old_state_1+0, BitPos(_old_state_1+0) 
;TP5_A.c,178 :: 		old_state_2 = 0;
	BCF         _old_state_2+0, BitPos(_old_state_2+0) 
;TP5_A.c,181 :: 		T0CON	 = 0x85;
	MOVLW       133
	MOVWF       T0CON+0 
;TP5_A.c,182 :: 		TMR0H	 = 0x0B;
	MOVLW       11
	MOVWF       TMR0H+0 
;TP5_A.c,183 :: 		TMR0L	 = 0xDC;
	MOVLW       220
	MOVWF       TMR0L+0 
;TP5_A.c,184 :: 		GIE_bit	 = 1;
	BSF         GIE_bit+0, BitPos(GIE_bit+0) 
;TP5_A.c,185 :: 		TMR0IE_bit	 = 1;
	BSF         TMR0IE_bit+0, BitPos(TMR0IE_bit+0) 
;TP5_A.c,189 :: 		ADC_Init();
	CALL        _ADC_Init+0, 0
;TP5_A.c,190 :: 		UART1_Init(9600);
	BSF         BAUDCON+0, 3, 0
	CLRF        SPBRGH+0 
	MOVLW       207
	MOVWF       SPBRG+0 
	BSF         TXSTA+0, 2, 0
	CALL        _UART1_Init+0, 0
;TP5_A.c,191 :: 		Lcd_Init();
	CALL        _Lcd_Init+0, 0
;TP5_A.c,192 :: 		I2C1_Init(100000);  // initalise le I2C
	MOVLW       20
	MOVWF       SSP1ADD+0 
	CALL        _I2C1_Init+0, 0
;TP5_A.c,193 :: 		Delay_100ms();
	CALL        _Delay_100ms+0, 0
;TP5_A.c,194 :: 		LCD_init_message();
	CALL        _LCD_init_message+0, 0
;TP5_A.c,195 :: 		}
L_end_init:
	RETURN      0
; end of _init

_main:

;TP5_A.c,198 :: 		void main(){
;TP5_A.c,199 :: 		init();
	CALL        _init+0, 0
;TP5_A.c,201 :: 		for(;;){
L_main24:
;TP5_A.c,202 :: 		update_values();
	CALL        _update_values+0, 0
;TP5_A.c,203 :: 		adc2eeprom();
	CALL        _adc2eeprom+0, 0
;TP5_A.c,204 :: 		dump_from_eeprom();
	CALL        _dump_from_eeprom+0, 0
;TP5_A.c,205 :: 		}
	GOTO        L_main24
;TP5_A.c,206 :: 		}
L_end_main:
	GOTO        $+0
; end of _main
